target datalayout = "e-m:e-p270:32:32-p271:32:32-p272:64:64-i64:64-i128:128-f80:128-n8:16:32:64-S128"
target triple = "x86_64-pc-linux-gnu"

%struct._object = type { %union.anon, ptr }
%union.anon = type { i64 }
%struct.SHA3State = type { ptr, ptr, ptr, ptr, ptr, ptr }
%struct._typeobject = type { %struct.PyVarObject, ptr, i64, i64, ptr, i64, ptr, ptr, ptr, ptr, ptr, ptr, ptr, ptr, ptr, ptr, ptr, ptr, ptr, i64, ptr, ptr, ptr, ptr, i64, ptr, ptr, ptr, ptr, ptr, ptr, ptr, ptr, ptr, i64, ptr, ptr, ptr, ptr, ptr, ptr, ptr, ptr, ptr, ptr, ptr, i32, ptr, ptr, i8, i16 }
%struct.PyVarObject = type { %struct._object, i64 }
%struct._heaptypeobject = type { %struct._typeobject, %struct.PyAsyncMethods, %struct.PyNumberMethods, %struct.PyMappingMethods, %struct.PySequenceMethods, %struct.PyBufferProcs, ptr, ptr, ptr, ptr, ptr, ptr, ptr, %struct._specialization_cache }
%struct.PyAsyncMethods = type { ptr, ptr, ptr, ptr }
%struct.PyNumberMethods = type { ptr, ptr, ptr, ptr, ptr, ptr, ptr, ptr, ptr, ptr, ptr, ptr, ptr, ptr, ptr, ptr, ptr, ptr, ptr, ptr, ptr, ptr, ptr, ptr, ptr, ptr, ptr, ptr, ptr, ptr, ptr, ptr, ptr, ptr, ptr, ptr }
%struct.PyMappingMethods = type { ptr, ptr, ptr }
%struct.PySequenceMethods = type { ptr, ptr, ptr, ptr, ptr, ptr, ptr, ptr, ptr, ptr }
%struct.PyBufferProcs = type { ptr, ptr }
%struct._specialization_cache = type { ptr, i32, ptr }
%struct.PyModuleObject = type { %struct._object, ptr, ptr, ptr, ptr, ptr }

@.str.21 = private unnamed_addr constant [9 x i8] c"sha3_224\00", align 1
@.str.22 = private unnamed_addr constant [9 x i8] c"sha3_256\00", align 1
@.str.23 = private unnamed_addr constant [9 x i8] c"sha3_384\00", align 1
@.str.24 = private unnamed_addr constant [9 x i8] c"sha3_512\00", align 1
@.str.25 = private unnamed_addr constant [10 x i8] c"shake_128\00", align 1
@.str.26 = private unnamed_addr constant [10 x i8] c"shake_256\00", align 1
@.str.27 = private unnamed_addr constant [32 x i8] c"../cpython/Modules/sha3module.c\00", align 1

; Function Attrs: inlinehint nounwind uwtable
define internal ptr @_PyType_GetModuleState(ptr noundef %0) #3 {
  %2 = alloca ptr, align 8
  %3 = alloca ptr, align 8
  %4 = alloca ptr, align 8
  store ptr %0, ptr %2, align 8, !tbaa !21
  call void @llvm.lifetime.start.p0(i64 8, ptr %3) #7
  %5 = load ptr, ptr %2, align 8, !tbaa !21
  store ptr %5, ptr %3, align 8, !tbaa !62
  call void @llvm.lifetime.start.p0(i64 8, ptr %4) #7
  %6 = load ptr, ptr %3, align 8, !tbaa !62
  %7 = getelementptr inbounds nuw %struct._heaptypeobject, ptr %6, i32 0, i32 10
  %8 = load ptr, ptr %7, align 8, !tbaa !64
  store ptr %8, ptr %4, align 8, !tbaa !8
  %9 = load ptr, ptr %4, align 8, !tbaa !8
  %10 = getelementptr inbounds nuw %struct.PyModuleObject, ptr %9, i32 0, i32 3
  %11 = load ptr, ptr %10, align 8, !tbaa !73
  call void @llvm.lifetime.end.p0(i64 8, ptr %4) #7
  call void @llvm.lifetime.end.p0(i64 8, ptr %3) #7
  ret ptr %11
}

; Function Attrs: inlinehint nounwind uwtable
define internal ptr @_Py_TYPE(ptr noundef %0) #3 {
  %2 = alloca ptr, align 8
  store ptr %0, ptr %2, align 8, !tbaa !3
  %3 = load ptr, ptr %2, align 8, !tbaa !3
  %4 = getelementptr inbounds nuw %struct._object, ptr %3, i32 0, i32 1
  %5 = load ptr, ptr %4, align 8, !tbaa !40
  ret ptr %5
}

; Function Attrs: nounwind uwtable
define internal ptr @SHA3_get_name(ptr noundef %0, ptr noundef %1) #0 {
  %3 = alloca ptr, align 8
  %4 = alloca ptr, align 8
  %5 = alloca ptr, align 8
  %6 = alloca ptr, align 8
  %7 = alloca ptr, align 8
  %8 = alloca i32, align 4
  store ptr %0, ptr %4, align 8, !tbaa !3
  store ptr %1, ptr %5, align 8, !tbaa !8
  call void @llvm.lifetime.start.p0(i64 8, ptr %6) #7
  %9 = load ptr, ptr %4, align 8, !tbaa !3
  %10 = call ptr @_Py_TYPE(ptr noundef %9)
  store ptr %10, ptr %6, align 8, !tbaa !21
  call void @llvm.lifetime.start.p0(i64 8, ptr %7) #7
  %11 = load ptr, ptr %6, align 8, !tbaa !21
  %12 = call ptr @_PyType_GetModuleState(ptr noundef %11)
  store ptr %12, ptr %7, align 8, !tbaa !8
  %13 = load ptr, ptr %6, align 8, !tbaa !21
  %14 = load ptr, ptr %7, align 8, !tbaa !8
  %15 = getelementptr inbounds nuw %struct.SHA3State, ptr %14, i32 0, i32 0
  %16 = load ptr, ptr %15, align 8, !tbaa !9
  %17 = icmp eq ptr %13, %16
  br i1 %17, label %18, label %20

18:                                               ; preds = %2
  %19 = call ptr @PyUnicode_FromString(ptr noundef @.str.21)
  store ptr %19, ptr %3, align 8
  store i32 1, ptr %8, align 4
  br label %61

20:                                               ; preds = %2
  %21 = load ptr, ptr %6, align 8, !tbaa !21
  %22 = load ptr, ptr %7, align 8, !tbaa !8
  %23 = getelementptr inbounds nuw %struct.SHA3State, ptr %22, i32 0, i32 1
  %24 = load ptr, ptr %23, align 8, !tbaa !14
  %25 = icmp eq ptr %21, %24
  br i1 %25, label %26, label %28

26:                                               ; preds = %20
  %27 = call ptr @PyUnicode_FromString(ptr noundef @.str.22)
  store ptr %27, ptr %3, align 8
  store i32 1, ptr %8, align 4
  br label %61

28:                                               ; preds = %20
  %29 = load ptr, ptr %6, align 8, !tbaa !21
  %30 = load ptr, ptr %7, align 8, !tbaa !8
  %31 = getelementptr inbounds nuw %struct.SHA3State, ptr %30, i32 0, i32 2
  %32 = load ptr, ptr %31, align 8, !tbaa !15
  %33 = icmp eq ptr %29, %32
  br i1 %33, label %34, label %36

34:                                               ; preds = %28
  %35 = call ptr @PyUnicode_FromString(ptr noundef @.str.23)
  store ptr %35, ptr %3, align 8
  store i32 1, ptr %8, align 4
  br label %61

36:                                               ; preds = %28
  %37 = load ptr, ptr %6, align 8, !tbaa !21
  %38 = load ptr, ptr %7, align 8, !tbaa !8
  %39 = getelementptr inbounds nuw %struct.SHA3State, ptr %38, i32 0, i32 3
  %40 = load ptr, ptr %39, align 8, !tbaa !16
  %41 = icmp eq ptr %37, %40
  br i1 %41, label %42, label %44

42:                                               ; preds = %36
  %43 = call ptr @PyUnicode_FromString(ptr noundef @.str.24)
  store ptr %43, ptr %3, align 8
  store i32 1, ptr %8, align 4
  br label %61

44:                                               ; preds = %36
  %45 = load ptr, ptr %6, align 8, !tbaa !21
  %46 = load ptr, ptr %7, align 8, !tbaa !8
  %47 = getelementptr inbounds nuw %struct.SHA3State, ptr %46, i32 0, i32 4
  %48 = load ptr, ptr %47, align 8, !tbaa !17
  %49 = icmp eq ptr %45, %48
  br i1 %49, label %50, label %52

50:                                               ; preds = %44
  %51 = call ptr @PyUnicode_FromString(ptr noundef @.str.25)
  store ptr %51, ptr %3, align 8
  store i32 1, ptr %8, align 4
  br label %61

52:                                               ; preds = %44
  %53 = load ptr, ptr %6, align 8, !tbaa !21
  %54 = load ptr, ptr %7, align 8, !tbaa !8
  %55 = getelementptr inbounds nuw %struct.SHA3State, ptr %54, i32 0, i32 5
  %56 = load ptr, ptr %55, align 8, !tbaa !18
  %57 = icmp eq ptr %53, %56
  br i1 %57, label %58, label %60

58:                                               ; preds = %52
  %59 = call ptr @PyUnicode_FromString(ptr noundef @.str.26)
  store ptr %59, ptr %3, align 8
  store i32 1, ptr %8, align 4
  br label %61

60:                                               ; preds = %52
  call void @_PyErr_BadInternalCall(ptr noundef @.str.27, i32 noundef 338)
  store ptr null, ptr %3, align 8
  store i32 1, ptr %8, align 4
  br label %61

61:                                               ; preds = %60, %58, %50, %42, %34, %26, %18
  call void @llvm.lifetime.end.p0(i64 8, ptr %7) #7
  call void @llvm.lifetime.end.p0(i64 8, ptr %6) #7
  %62 = load ptr, ptr %3, align 8
  ret ptr %62
}