; Function Attrs: nounwind uwtable
define internal ptr @SHA3_get_name(ptr noundef readonly captures(none) %0, ptr readnone captures(none) %1) #0 {
  %3 = getelementptr i8, ptr %0, i64 8
  %.val16 = load ptr, ptr %3, align 8, !tbaa !22
  %4 = getelementptr i8, ptr %.val16, i64 888
  %.val = load ptr, ptr %4, align 8, !tbaa !40
  %5 = getelementptr i8, ptr %.val, i64 32
  %.val.val = load ptr, ptr %5, align 8, !tbaa !48
  %6 = load ptr, ptr %.val.val, align 8, !tbaa !3
  %7 = icmp eq ptr %.val16, %6
  br i1 %7, label %8, label %10

8:                                                ; preds = %2
  %9 = tail call ptr @PyUnicode_FromString(ptr noundef nonnull @.str.21) #4
  br label %41

10:                                               ; preds = %2
  %11 = getelementptr inbounds nuw i8, ptr %.val.val, i64 8
  %12 = load ptr, ptr %11, align 8, !tbaa !9
  %13 = icmp eq ptr %.val16, %12
  br i1 %13, label %14, label %16

14:                                               ; preds = %10
  %15 = tail call ptr @PyUnicode_FromString(ptr noundef nonnull @.str.22) #4
  br label %41

16:                                               ; preds = %10
  %17 = getelementptr inbounds nuw i8, ptr %.val.val, i64 16
  %18 = load ptr, ptr %17, align 8, !tbaa !10
  %19 = icmp eq ptr %.val16, %18
  br i1 %19, label %20, label %22

20:                                               ; preds = %16
  %21 = tail call ptr @PyUnicode_FromString(ptr noundef nonnull @.str.23) #4
  br label %41

22:                                               ; preds = %16
  %23 = getelementptr inbounds nuw i8, ptr %.val.val, i64 24
  %24 = load ptr, ptr %23, align 8, !tbaa !11
  %25 = icmp eq ptr %.val16, %24
  br i1 %25, label %26, label %28

26:                                               ; preds = %22
  %27 = tail call ptr @PyUnicode_FromString(ptr noundef nonnull @.str.24) #4
  br label %41

28:                                               ; preds = %22
  %29 = getelementptr inbounds nuw i8, ptr %.val.val, i64 32
  %30 = load ptr, ptr %29, align 8, !tbaa !12
  %31 = icmp eq ptr %.val16, %30
  br i1 %31, label %32, label %34

32:                                               ; preds = %28
  %33 = tail call ptr @PyUnicode_FromString(ptr noundef nonnull @.str.25) #4
  br label %41

34:                                               ; preds = %28
  %35 = getelementptr inbounds nuw i8, ptr %.val.val, i64 40
  %36 = load ptr, ptr %35, align 8, !tbaa !13
  %37 = icmp eq ptr %.val16, %36
  br i1 %37, label %38, label %40

38:                                               ; preds = %34
  %39 = tail call ptr @PyUnicode_FromString(ptr noundef nonnull @.str.26) #4
  br label %41

40:                                               ; preds = %34
  tail call void @_PyErr_BadInternalCall(ptr noundef nonnull @.str.27, i32 noundef 338) #4
  br label %41

41:                                               ; preds = %40, %38, %32, %26, %20, %14, %8
  %.0 = phi ptr [ %9, %8 ], [ %15, %14 ], [ %21, %20 ], [ %27, %26 ], [ %33, %32 ], [ %39, %38 ], [ null, %40 ]
  ret ptr %.0
}